; Function Attrs: nounwind uwtable
define internal range(i32 -1, 1) i32 @type_modified_callback_wrap(ptr noundef %0) #0 {
  %2 = load ptr, ptr @g_type_modified_events, align 8, !tbaa !21
  %3 = getelementptr i8, ptr %2, i64 8
  %.val = load ptr, ptr %3, align 8, !tbaa !3
  %4 = getelementptr i8, ptr %.val, i64 168
  %.val11 = load i64, ptr %4, align 8, !tbaa !9
  %5 = and i64 %.val11, 33554432
  %.not = icmp eq i64 %5, 0
  br i1 %.not, label %6, label %7

6:                                                ; preds = %1
  tail call void @__assert_fail(ptr noundef nonnull @.str.47, ptr noundef nonnull @.str.32, i32 noundef 191, ptr noundef nonnull @__PRETTY_FUNCTION__.type_modified_callback_wrap) #7
  unreachable

7:                                                ; preds = %1
  %8 = tail call ptr @PyList_New(i64 noundef 0) #6
  %9 = icmp eq ptr %8, null
  br i1 %9, label %Py_DECREF.exit9, label %10

10:                                               ; preds = %7
  %11 = tail call i32 @PyList_Append(ptr noundef nonnull %8, ptr noundef %0) #6
  %12 = icmp slt i32 %11, 0
  br i1 %12, label %13, label %19

13:                                               ; preds = %10
  %14 = load i32, ptr %8, align 8, !tbaa !22
  %.not.i8 = icmp sgt i32 %14, -1
  br i1 %.not.i8, label %15, label %Py_DECREF.exit9

15:                                               ; preds = %13
  %16 = add nsw i32 %14, -1
  store i32 %16, ptr %8, align 8, !tbaa !22
  %17 = icmp eq i32 %16, 0
  br i1 %17, label %18, label %Py_DECREF.exit9

18:                                               ; preds = %15
  tail call void @_Py_Dealloc(ptr noundef nonnull %8) #6
  br label %Py_DECREF.exit9

19:                                               ; preds = %10
  %20 = load ptr, ptr @g_type_modified_events, align 8, !tbaa !21
  %21 = tail call i32 @PyList_Append(ptr noundef %20, ptr noundef nonnull %8) #6
  %22 = load i32, ptr %8, align 8, !tbaa !22
  %.not.i = icmp sgt i32 %22, -1
  br i1 %.not.i, label %23, label %Py_DECREF.exit

23:                                               ; preds = %19
  %24 = add nsw i32 %22, -1
  store i32 %24, ptr %8, align 8, !tbaa !22
  %25 = icmp eq i32 %24, 0
  br i1 %25, label %26, label %Py_DECREF.exit

26:                                               ; preds = %23
  tail call void @_Py_Dealloc(ptr noundef nonnull %8) #6
  br label %Py_DECREF.exit

Py_DECREF.exit:                                   ; preds = %19, %23, %26
  %.lobit = ashr i32 %21, 31
  br label %Py_DECREF.exit9

Py_DECREF.exit9:                                  ; preds = %18, %15, %13, %Py_DECREF.exit, %7
  %.0 = phi i32 [ -1, %7 ], [ %.lobit, %Py_DECREF.exit ], [ -1, %13 ], [ -1, %15 ], [ -1, %18 ]
  ret i32 %.0
}